target datalayout = "e-m:e-p270:32:32-p271:32:32-p272:64:64-i64:64-i128:128-f80:128-n8:16:32:64-S128"
target triple = "x86_64-unknown-linux-gnu"

%"class.std::function" = type { %"class.std::_Function_base", ptr }
%"class.std::_Function_base" = type { %"union.std::_Any_data", ptr }
%"union.std::_Any_data" = type { %"union.std::_Nocopy_types" }
%"union.std::_Nocopy_types" = type { { i64, i64 } }
%class.anon.90 = type { ptr }
%"class.euf::arith_plugin" = type { %"class.euf::plugin", %class.arith_util, %class.svector, %"class.euf::ac_plugin", %"class.euf::ac_plugin" }
%"class.euf::plugin" = type { ptr, ptr }
%class.arith_util = type { ptr, ptr }
%class.svector = type { %class.vector }
%class.vector = type { ptr }
%"class.euf::ac_plugin" = type { %"class.euf::plugin", i32, i32, ptr, %class.vector.0, %class.ptr_vector, %class.svector.2, %class.vector.4, %class.svector.5, %class.stacked_dependency_manager, %class.tracked_uint_set, %class.tracked_uint_set, i64, %"struct.euf::ac_plugin::monomial_hash", %"struct.euf::ac_plugin::monomial_eq", %class.map, %class.svector.13, %class.ptr_vector, %class.svector.15, %class.svector.17, %class.svector.19, %"class.std::function", %class.ptr_vector.21, %class.ptr_vector, %class.ptr_vector, %class.ptr_vector, %class.ptr_vector, %"struct.euf::ac_plugin::ref_counts", %"struct.euf::ac_plugin::ref_counts", %"struct.euf::ac_plugin::ref_counts", %"struct.euf::ac_plugin::ref_counts", %"struct.euf::ac_plugin::ref_counts", %"struct.euf::ac_plugin::ref_counts", %class.svector.11, %class.svector.2 }
%class.vector.0 = type { ptr }
%class.vector.4 = type { ptr }
%class.svector.5 = type { %class.vector.6 }
%class.vector.6 = type { ptr }
%class.stacked_dependency_manager = type { %"class.stacked_dependency_manager<euf::justification>::config::value_manager", %"class.stacked_dependency_manager<euf::justification>::config::allocator", %class.dependency_manager }
%"class.stacked_dependency_manager<euf::justification>::config::value_manager" = type { i8 }
%"class.stacked_dependency_manager<euf::justification>::config::allocator" = type { ptr }
%class.dependency_manager = type { ptr, ptr, %class.ptr_vector.7 }
%class.ptr_vector.7 = type { %class.vector.8 }
%class.vector.8 = type { ptr }
%class.tracked_uint_set = type { %class.svector.9, %class.svector.11 }
%class.svector.9 = type { %class.vector.10 }
%class.vector.10 = type { ptr }
%"struct.euf::ac_plugin::monomial_hash" = type { ptr }
%"struct.euf::ac_plugin::monomial_eq" = type { ptr }
%class.map = type { %class.table2map }
%class.table2map = type { %class.core_hashtable }
%class.core_hashtable = type <{ %"struct.table2map<default_map_entry<unsigned int, euf::ac_plugin::shared>, euf::ac_plugin::monomial_hash, euf::ac_plugin::monomial_eq>::entry_hash_proc", %"struct.table2map<default_map_entry<unsigned int, euf::ac_plugin::shared>, euf::ac_plugin::monomial_hash, euf::ac_plugin::monomial_eq>::entry_eq_proc", ptr, i32, i32, i32, [4 x i8] }>
%"struct.table2map<default_map_entry<unsigned int, euf::ac_plugin::shared>, euf::ac_plugin::monomial_hash, euf::ac_plugin::monomial_eq>::entry_hash_proc" = type { %"struct.euf::ac_plugin::monomial_hash" }
%"struct.table2map<default_map_entry<unsigned int, euf::ac_plugin::shared>, euf::ac_plugin::monomial_hash, euf::ac_plugin::monomial_eq>::entry_eq_proc" = type { %"struct.euf::ac_plugin::monomial_eq" }
%class.svector.13 = type { %class.vector.14 }
%class.vector.14 = type { ptr }
%class.svector.15 = type { %class.vector.16 }
%class.vector.16 = type { ptr }
%class.svector.17 = type { %class.vector.18 }
%class.vector.18 = type { ptr }
%class.svector.19 = type { %class.vector.20 }
%class.vector.20 = type { ptr }
%class.ptr_vector.21 = type { %class.vector.22 }
%class.vector.22 = type { ptr }
%class.ptr_vector = type { %class.vector.1 }
%class.vector.1 = type { ptr }
%"struct.euf::ac_plugin::ref_counts" = type { %class.svector.11, %class.svector.11 }
%class.svector.11 = type { %class.vector.12 }
%class.vector.12 = type { ptr }
%class.svector.2 = type { %class.vector.3 }
%class.vector.3 = type { ptr }

; Function Attrs: mustprogress uwtable
define linkonce_odr hidden noundef nonnull align 8 dereferenceable(8) ptr @_ZN6vectorIN3euf12arith_plugin6undo_tELb0EjE9push_backEOS2_(ptr noundef nonnull align 8 dereferenceable(8) %this, ptr noundef nonnull align 4 dereferenceable(4) %elem) #5 comdat align 2 {
entry:
  %this.addr = alloca ptr, align 8
  %elem.addr = alloca ptr, align 8
  store ptr %this, ptr %this.addr, align 8
  store ptr %elem, ptr %elem.addr, align 8
  %this1 = load ptr, ptr %this.addr, align 8
  %m_data = getelementptr inbounds %class.vector, ptr %this1, i32 0, i32 0
  %0 = load ptr, ptr %m_data, align 8
  %cmp = icmp eq ptr %0, null
  br i1 %cmp, label %if.then, label %lor.lhs.false

lor.lhs.false:                                    ; preds = %entry
  %m_data2 = getelementptr inbounds %class.vector, ptr %this1, i32 0, i32 0
  %1 = load ptr, ptr %m_data2, align 8
  %arrayidx = getelementptr inbounds i32, ptr %1, i64 -1
  %2 = load i32, ptr %arrayidx, align 4
  %m_data3 = getelementptr inbounds %class.vector, ptr %this1, i32 0, i32 0
  %3 = load ptr, ptr %m_data3, align 8
  %arrayidx4 = getelementptr inbounds i32, ptr %3, i64 -2
  %4 = load i32, ptr %arrayidx4, align 4
  %cmp5 = icmp eq i32 %2, %4
  br i1 %cmp5, label %if.then, label %if.end

if.then:                                          ; preds = %lor.lhs.false, %entry
  call void @_ZN6vectorIN3euf12arith_plugin6undo_tELb0EjE13expand_vectorEv(ptr noundef nonnull align 8 dereferenceable(8) %this1)
  br label %if.end

if.end:                                           ; preds = %if.then, %lor.lhs.false
  %m_data6 = getelementptr inbounds %class.vector, ptr %this1, i32 0, i32 0
  %5 = load ptr, ptr %m_data6, align 8
  %m_data7 = getelementptr inbounds %class.vector, ptr %this1, i32 0, i32 0
  %6 = load ptr, ptr %m_data7, align 8
  %arrayidx8 = getelementptr inbounds i32, ptr %6, i64 -1
  %7 = load i32, ptr %arrayidx8, align 4
  %idx.ext = zext i32 %7 to i64
  %add.ptr = getelementptr inbounds i32, ptr %5, i64 %idx.ext
  %8 = load ptr, ptr %elem.addr, align 8
  %9 = load i32, ptr %8, align 4
  store i32 %9, ptr %add.ptr, align 4
  %m_data9 = getelementptr inbounds %class.vector, ptr %this1, i32 0, i32 0
  %10 = load ptr, ptr %m_data9, align 8
  %arrayidx10 = getelementptr inbounds i32, ptr %10, i64 -1
  %11 = load i32, ptr %arrayidx10, align 4
  %inc = add i32 %11, 1
  store i32 %inc, ptr %arrayidx10, align 4
  ret ptr %this1
}

; Function Attrs: mustprogress uwtable
define internal void @"_ZZN3euf12arith_pluginC1ERNS_6egraphEENK3$_1clEv"(ptr noundef nonnull align 8 dereferenceable(8) %this) #5 align 2 {
entry:
  %this.addr = alloca ptr, align 8
  %ref.tmp = alloca i32, align 4
  store ptr %this, ptr %this.addr, align 8
  %this1 = load ptr, ptr %this.addr, align 8
  %0 = getelementptr inbounds %class.anon.90, ptr %this1, i32 0, i32 0
  %1 = load ptr, ptr %0, align 8
  %m_undo = getelementptr inbounds %"class.euf::arith_plugin", ptr %1, i32 0, i32 2
  store i32 1, ptr %ref.tmp, align 4
  %call = call noundef nonnull align 8 dereferenceable(8) ptr @_ZN6vectorIN3euf12arith_plugin6undo_tELb0EjE9push_backEOS2_(ptr noundef nonnull align 8 dereferenceable(8) %m_undo, ptr noundef nonnull align 4 dereferenceable(4) %ref.tmp)
  ret void
}

; Function Attrs: mustprogress nounwind uwtable
define linkonce_odr hidden noundef ptr @_ZNKSt9_Any_data9_M_accessEv(ptr noundef nonnull align 8 dereferenceable(16) %this) #4 comdat align 2 {
entry:
  %this.addr = alloca ptr, align 8
  store ptr %this, ptr %this.addr, align 8
  %this1 = load ptr, ptr %this.addr, align 8
  %arrayidx = getelementptr inbounds [16 x i8], ptr %this1, i64 0, i64 0
  ret ptr %arrayidx
}

; Function Attrs: mustprogress uwtable
define internal void @"_ZSt13__invoke_implIvRZN3euf12arith_pluginC1ERNS0_6egraphEE3$_1JEET_St14__invoke_otherOT0_DpOT1_"(ptr noundef nonnull align 8 dereferenceable(8) %__f) #5 {
entry:
  %__f.addr = alloca ptr, align 8
  store ptr %__f, ptr %__f.addr, align 8
  %0 = load ptr, ptr %__f.addr, align 8
  call void @"_ZZN3euf12arith_pluginC1ERNS_6egraphEENK3$_1clEv"(ptr noundef nonnull align 8 dereferenceable(8) %0)
  ret void
}

; Function Attrs: mustprogress nounwind uwtable
define internal noundef nonnull align 8 dereferenceable(8) ptr @"_ZNKSt9_Any_data9_M_accessIZN3euf12arith_pluginC1ERNS1_6egraphEE3$_1EERKT_v"(ptr noundef nonnull align 8 dereferenceable(16) %this) #4 align 2 {
entry:
  %this.addr = alloca ptr, align 8
  store ptr %this, ptr %this.addr, align 8
  %this1 = load ptr, ptr %this.addr, align 8
  %call = call noundef ptr @_ZNKSt9_Any_data9_M_accessEv(ptr noundef nonnull align 8 dereferenceable(16) %this1) #3
  ret ptr %call
}

; Function Attrs: mustprogress uwtable
define internal void @"_ZSt10__invoke_rIvRZN3euf12arith_pluginC1ERNS0_6egraphEE3$_1JEENSt9enable_ifIX16is_invocable_r_vIT_T0_DpT1_EES7_E4typeEOS8_DpOS9_"(ptr noundef nonnull align 8 dereferenceable(8) %__fn) #5 {
entry:
  %__fn.addr = alloca ptr, align 8
  store ptr %__fn, ptr %__fn.addr, align 8
  %0 = load ptr, ptr %__fn.addr, align 8
  call void @"_ZSt13__invoke_implIvRZN3euf12arith_pluginC1ERNS0_6egraphEE3$_1JEET_St14__invoke_otherOT0_DpOT1_"(ptr noundef nonnull align 8 dereferenceable(8) %0)
  ret void
}

; Function Attrs: mustprogress nounwind uwtable
define internal noundef ptr @"_ZNSt14_Function_base13_Base_managerIZN3euf12arith_pluginC1ERNS1_6egraphEE3$_1E14_M_get_pointerERKSt9_Any_data"(ptr noundef nonnull align 8 dereferenceable(16) %__source) #4 align 2 {
entry:
  %__source.addr = alloca ptr, align 8
  %__f = alloca ptr, align 8
  store ptr %__source, ptr %__source.addr, align 8
  %0 = load ptr, ptr %__source.addr, align 8
  %call = call noundef nonnull align 8 dereferenceable(8) ptr @"_ZNKSt9_Any_data9_M_accessIZN3euf12arith_pluginC1ERNS1_6egraphEE3$_1EERKT_v"(ptr noundef nonnull align 8 dereferenceable(16) %0) #3
  store ptr %call, ptr %__f, align 8
  %1 = load ptr, ptr %__f, align 8
  ret ptr %1
}

; Function Attrs: mustprogress uwtable
define internal void @"_ZNSt17_Function_handlerIFvvEZN3euf12arith_pluginC1ERNS1_6egraphEE3$_1E9_M_invokeERKSt9_Any_data"(ptr noundef nonnull align 8 dereferenceable(16) %__functor) #5 align 2 {
entry:
  %__functor.addr = alloca ptr, align 8
  store ptr %__functor, ptr %__functor.addr, align 8
  %0 = load ptr, ptr %__functor.addr, align 8
  %call = call noundef ptr @"_ZNSt14_Function_base13_Base_managerIZN3euf12arith_pluginC1ERNS1_6egraphEE3$_1E14_M_get_pointerERKSt9_Any_data"(ptr noundef nonnull align 8 dereferenceable(16) %0) #3
  call void @"_ZSt10__invoke_rIvRZN3euf12arith_pluginC1ERNS0_6egraphEE3$_1JEENSt9enable_ifIX16is_invocable_r_vIT_T0_DpT1_EES7_E4typeEOS8_DpOS9_"(ptr noundef nonnull align 8 dereferenceable(8) %call)
  ret void
}