; Function Attrs: mustprogress uwtable
define internal void @"_ZNSt17_Function_handlerIFvvEZN3euf12arith_pluginC1ERNS1_6egraphEE3$_1E9_M_invokeERKSt9_Any_data"(ptr nocapture noundef nonnull readonly align 8 dereferenceable(16) %__functor) #3 align 2 {
entry:
  %call.val = load ptr, ptr %__functor, align 8
  %m_undo.i.i.i = getelementptr inbounds i8, ptr %call.val, i64 32
  %0 = load ptr, ptr %m_undo.i.i.i, align 8
  %cmp.i.i.i.i = icmp eq ptr %0, null
  br i1 %cmp.i.i.i.i, label %if.then.i.i.i.i, label %lor.lhs.false.i.i.i.i

lor.lhs.false.i.i.i.i:                            ; preds = %entry
  %arrayidx.i.i.i.i = getelementptr inbounds i8, ptr %0, i64 -4
  %1 = load i32, ptr %arrayidx.i.i.i.i, align 4
  %arrayidx4.i.i.i.i = getelementptr inbounds i8, ptr %0, i64 -8
  %2 = load i32, ptr %arrayidx4.i.i.i.i, align 4
  %cmp5.i.i.i.i = icmp eq i32 %1, %2
  br i1 %cmp5.i.i.i.i, label %if.then.i.i.i.i, label %"_ZSt10__invoke_rIvRZN3euf12arith_pluginC1ERNS0_6egraphEE3$_1JEENSt9enable_ifIX16is_invocable_r_vIT_T0_DpT1_EES7_E4typeEOS8_DpOS9_.exit"

if.then.i.i.i.i:                                  ; preds = %lor.lhs.false.i.i.i.i, %entry
  tail call void @_ZN6vectorIN3euf12arith_plugin6undo_tELb0EjE13expand_vectorEv(ptr noundef nonnull align 8 dereferenceable(8) %m_undo.i.i.i)
  %.pre.i.i.i.i = load ptr, ptr %m_undo.i.i.i, align 8
  %arrayidx8.phi.trans.insert.i.i.i.i = getelementptr inbounds i8, ptr %.pre.i.i.i.i, i64 -4
  %.pre1.i.i.i.i = load i32, ptr %arrayidx8.phi.trans.insert.i.i.i.i, align 4
  br label %"_ZSt10__invoke_rIvRZN3euf12arith_pluginC1ERNS0_6egraphEE3$_1JEENSt9enable_ifIX16is_invocable_r_vIT_T0_DpT1_EES7_E4typeEOS8_DpOS9_.exit"

"_ZSt10__invoke_rIvRZN3euf12arith_pluginC1ERNS0_6egraphEE3$_1JEENSt9enable_ifIX16is_invocable_r_vIT_T0_DpT1_EES7_E4typeEOS8_DpOS9_.exit": ; preds = %lor.lhs.false.i.i.i.i, %if.then.i.i.i.i
  %3 = phi i32 [ %.pre1.i.i.i.i, %if.then.i.i.i.i ], [ %1, %lor.lhs.false.i.i.i.i ]
  %4 = phi ptr [ %.pre.i.i.i.i, %if.then.i.i.i.i ], [ %0, %lor.lhs.false.i.i.i.i ]
  %idx.ext.i.i.i.i = zext i32 %3 to i64
  %add.ptr.i.i.i.i = getelementptr inbounds i32, ptr %4, i64 %idx.ext.i.i.i.i
  store i32 1, ptr %add.ptr.i.i.i.i, align 4
  %5 = load ptr, ptr %m_undo.i.i.i, align 8
  %arrayidx10.i.i.i.i = getelementptr inbounds i8, ptr %5, i64 -4
  %6 = load i32, ptr %arrayidx10.i.i.i.i, align 4
  %inc.i.i.i.i = add i32 %6, 1
  store i32 %inc.i.i.i.i, ptr %arrayidx10.i.i.i.i, align 4
  ret void
}